; Function Attrs: mustprogress uwtable
define void @_ZN2cv4gapi9normalizeERKNS_4GMatEddii(ptr dead_on_unwind noalias writable sret(%"class.cv::GMat") align 8 %0, ptr noundef nonnull readonly align 8 captures(none) dereferenceable(16) %1, double noundef %2, double noundef %3, i32 noundef %4, i32 noundef %5) local_unnamed_addr #3 personality ptr @__gxx_personality_v0 {
  %7 = alloca %"class.cv::GMat", align 8
  %8 = load ptr, ptr %1, align 8, !tbaa !3
  store ptr %8, ptr %7, align 8, !tbaa !3
  %9 = getelementptr inbounds nuw i8, ptr %7, i64 8
  %10 = getelementptr inbounds nuw i8, ptr %1, i64 8
  %11 = load ptr, ptr %10, align 8, !tbaa !11
  store ptr %11, ptr %9, align 8, !tbaa !11
  %.not.i.i.i.i = icmp eq ptr %11, null
  br i1 %.not.i.i.i.i, label %_ZN2cv4GMatC2ERKS0_.exit, label %12

12:                                               ; preds = %6
  %13 = getelementptr inbounds nuw i8, ptr %11, i64 8
  %14 = load i8, ptr @__libc_single_threaded, align 1, !tbaa !12
  %.not.i.i.i.i.i = icmp eq i8 %14, 0
  br i1 %.not.i.i.i.i.i, label %18, label %15

15:                                               ; preds = %12
  %16 = load i32, ptr %13, align 4, !tbaa !13
  %17 = add nsw i32 %16, 1
  store i32 %17, ptr %13, align 4, !tbaa !13
  br label %_ZN2cv4GMatC2ERKS0_.exit

18:                                               ; preds = %12
  %19 = atomicrmw volatile add ptr %13, i32 1 acq_rel, align 4
  br label %_ZN2cv4GMatC2ERKS0_.exit

_ZN2cv4GMatC2ERKS0_.exit:                         ; preds = %6, %15, %18
  invoke void @_ZN2cv11GKernelTypeINS_4gapi4core10GNormalizeESt8functionIFNS_4GMatES5_ddiiEEE2onES5_ddii(ptr dead_on_unwind writable sret(%"class.cv::GMat") align 8 %0, ptr noundef nonnull %7, double noundef %2, double noundef %3, i32 noundef %4, i32 noundef %5)
          to label %20 unwind label %43

20:                                               ; preds = %_ZN2cv4GMatC2ERKS0_.exit
  %21 = load ptr, ptr %9, align 8, !tbaa !11
  %.not.i.i.i = icmp eq ptr %21, null
  br i1 %.not.i.i.i, label %_ZN2cv4GMatD2Ev.exit, label %22

22:                                               ; preds = %20
  %23 = getelementptr inbounds nuw i8, ptr %21, i64 8
  %24 = load atomic i64, ptr %23 acquire, align 8
  %25 = icmp eq i64 %24, 4294967297
  %26 = trunc i64 %24 to i32
  br i1 %25, label %27, label %35

27:                                               ; preds = %22
  store i32 0, ptr %23, align 8, !tbaa !15
  %28 = getelementptr inbounds nuw i8, ptr %21, i64 12
  store i32 0, ptr %28, align 4, !tbaa !17
  %29 = load ptr, ptr %21, align 8, !tbaa !18
  %30 = getelementptr inbounds nuw i8, ptr %29, i64 16
  %31 = load ptr, ptr %30, align 8
  call void %31(ptr noundef nonnull align 8 dereferenceable(16) %21) #23
  %32 = load ptr, ptr %21, align 8, !tbaa !18
  %33 = getelementptr inbounds nuw i8, ptr %32, i64 24
  %34 = load ptr, ptr %33, align 8
  call void %34(ptr noundef nonnull align 8 dereferenceable(16) %21) #23
  br label %_ZN2cv4GMatD2Ev.exit

35:                                               ; preds = %22
  %36 = load i8, ptr @__libc_single_threaded, align 1, !tbaa !12
  %.not.i.i.i.i6 = icmp eq i8 %36, 0
  br i1 %.not.i.i.i.i6, label %39, label %37

37:                                               ; preds = %35
  %38 = add nsw i32 %26, -1
  store i32 %38, ptr %23, align 4, !tbaa !13
  br label %_ZN9__gnu_cxx27__exchange_and_add_dispatchEPii.exit.i.i.i.i

39:                                               ; preds = %35
  %40 = atomicrmw volatile add ptr %23, i32 -1 acq_rel, align 4
  br label %_ZN9__gnu_cxx27__exchange_and_add_dispatchEPii.exit.i.i.i.i

_ZN9__gnu_cxx27__exchange_and_add_dispatchEPii.exit.i.i.i.i: ; preds = %39, %37
  %.0.i.i.i.i.i = phi i32 [ %26, %37 ], [ %40, %39 ]
  %41 = icmp eq i32 %.0.i.i.i.i.i, 1
  br i1 %41, label %42, label %_ZN2cv4GMatD2Ev.exit, !prof !20

42:                                               ; preds = %_ZN9__gnu_cxx27__exchange_and_add_dispatchEPii.exit.i.i.i.i
  call void @_ZNSt16_Sp_counted_baseILN9__gnu_cxx12_Lock_policyE2EE24_M_release_last_use_coldEv(ptr noundef nonnull align 8 dereferenceable(16) %21) #23
  br label %_ZN2cv4GMatD2Ev.exit

_ZN2cv4GMatD2Ev.exit:                             ; preds = %20, %27, %_ZN9__gnu_cxx27__exchange_and_add_dispatchEPii.exit.i.i.i.i, %42
  ret void

43:                                               ; preds = %_ZN2cv4GMatC2ERKS0_.exit
  %44 = landingpad { ptr, i32 }
          cleanup
  call void @_ZN2cv4GMatD2Ev(ptr noundef nonnull align 8 dereferenceable(16) %7) #23
  resume { ptr, i32 } %44
}